target datalayout = "e-m:e-p270:32:32-p271:32:32-p272:64:64-i64:64-i128:128-f80:128-n8:16:32:64-S128"
target triple = "x86_64-pc-linux-gnu"

%"class.Ipopt::Matrix" = type <{ %"class.Ipopt::TaggedObject", %"class.Ipopt::SmartPtr", i32, i8, [3 x i8] }>
%"class.Ipopt::TaggedObject" = type { %"class.Ipopt::ReferencedObject.base", %"class.Ipopt::Subject", i32, i32 }
%"class.Ipopt::ReferencedObject.base" = type <{ ptr, i32 }>
%"class.Ipopt::Subject" = type { ptr, %"class.std::vector" }
%"class.std::vector" = type { %"struct.std::_Vector_base" }
%"struct.std::_Vector_base" = type { %"struct.std::_Vector_base<Ipopt::Observer *, std::allocator<Ipopt::Observer *>>::_Vector_impl" }
%"struct.std::_Vector_base<Ipopt::Observer *, std::allocator<Ipopt::Observer *>>::_Vector_impl" = type { %"struct.std::_Vector_base<Ipopt::Observer *, std::allocator<Ipopt::Observer *>>::_Vector_impl_data" }
%"struct.std::_Vector_base<Ipopt::Observer *, std::allocator<Ipopt::Observer *>>::_Vector_impl_data" = type { ptr, ptr, ptr }
%"class.Ipopt::SmartPtr" = type { ptr }
%"class.Ipopt::DenseGenMatrix" = type { %"class.Ipopt::Matrix.base", ptr, ptr, i8, i32, ptr }
%"class.Ipopt::Matrix.base" = type <{ %"class.Ipopt::TaggedObject", %"class.Ipopt::SmartPtr", i32, i8 }>
%"class.Ipopt::MatrixSpace" = type { %"class.Ipopt::ReferencedObject.base", i32, i32, [4 x i8] }

; Function Attrs: mustprogress nounwind uwtable
define linkonce_odr noundef i32 @_ZNK5Ipopt11MatrixSpace5NColsEv(ptr noundef nonnull align 8 dereferenceable(20) %0) #0 comdat align 2 {
  %2 = alloca ptr, align 8
  store ptr %0, ptr %2, align 8, !tbaa !37
  %3 = load ptr, ptr %2, align 8
  %4 = getelementptr inbounds nuw %"class.Ipopt::MatrixSpace", ptr %3, i32 0, i32 2
  %5 = load i32, ptr %4, align 8, !tbaa !104
  ret i32 %5
}

; Function Attrs: mustprogress nounwind uwtable
define linkonce_odr noundef i32 @_ZNK5Ipopt11MatrixSpace5NRowsEv(ptr noundef nonnull align 8 dereferenceable(20) %0) #0 comdat align 2 {
  %2 = alloca ptr, align 8
  store ptr %0, ptr %2, align 8, !tbaa !37
  %3 = load ptr, ptr %2, align 8
  %4 = getelementptr inbounds nuw %"class.Ipopt::MatrixSpace", ptr %3, i32 0, i32 1
  %5 = load i32, ptr %4, align 4, !tbaa !102
  ret i32 %5
}

; Function Attrs: mustprogress nounwind uwtable
define linkonce_odr noundef ptr @_ZNK5Ipopt8SmartPtrIKNS_11MatrixSpaceEEptEv(ptr noundef nonnull align 8 dereferenceable(8) %0) #0 comdat align 2 {
  %2 = alloca ptr, align 8
  store ptr %0, ptr %2, align 8, !tbaa !107
  %3 = load ptr, ptr %2, align 8
  %4 = getelementptr inbounds nuw %"class.Ipopt::SmartPtr", ptr %3, i32 0, i32 0
  %5 = load ptr, ptr %4, align 8, !tbaa !109
  ret ptr %5
}

; Function Attrs: mustprogress nounwind uwtable
define linkonce_odr noundef ptr @_ZNK5Ipopt14DenseGenMatrix6ValuesEv(ptr noundef nonnull align 8 dereferenceable(104) %0) #0 comdat align 2 {
  %2 = alloca ptr, align 8
  store ptr %0, ptr %2, align 8, !tbaa !10
  %3 = load ptr, ptr %2, align 8
  %4 = getelementptr inbounds nuw %"class.Ipopt::DenseGenMatrix", ptr %3, i32 0, i32 2
  %5 = load ptr, ptr %4, align 8, !tbaa !33
  ret ptr %5
}

; Function Attrs: inlinehint mustprogress uwtable
define linkonce_odr noundef i32 @_ZNK5Ipopt6Matrix5NColsEv(ptr noundef nonnull align 8 dereferenceable(69) %0) #3 comdat align 2 {
  %2 = alloca ptr, align 8
  store ptr %0, ptr %2, align 8, !tbaa !3
  %3 = load ptr, ptr %2, align 8
  %4 = getelementptr inbounds nuw %"class.Ipopt::Matrix", ptr %3, i32 0, i32 1
  %5 = call noundef ptr @_ZNK5Ipopt8SmartPtrIKNS_11MatrixSpaceEEptEv(ptr noundef nonnull align 8 dereferenceable(8) %4)
  %6 = call noundef i32 @_ZNK5Ipopt11MatrixSpace5NColsEv(ptr noundef nonnull align 8 dereferenceable(20) %5)
  ret i32 %6
}

; Function Attrs: inlinehint mustprogress uwtable
define linkonce_odr noundef i32 @_ZNK5Ipopt6Matrix5NRowsEv(ptr noundef nonnull align 8 dereferenceable(69) %0) #3 comdat align 2 {
  %2 = alloca ptr, align 8
  store ptr %0, ptr %2, align 8, !tbaa !3
  %3 = load ptr, ptr %2, align 8
  %4 = getelementptr inbounds nuw %"class.Ipopt::Matrix", ptr %3, i32 0, i32 1
  %5 = call noundef ptr @_ZNK5Ipopt8SmartPtrIKNS_11MatrixSpaceEEptEv(ptr noundef nonnull align 8 dereferenceable(8) %4)
  %6 = call noundef i32 @_ZNK5Ipopt11MatrixSpace5NRowsEv(ptr noundef nonnull align 8 dereferenceable(20) %5)
  ret i32 %6
}

; Function Attrs: mustprogress uwtable
define void @_ZN5Ipopt14DenseGenMatrix16AddMatrixProductEdRKS0_bS2_bd(ptr noundef nonnull align 8 dereferenceable(104) %0, double noundef %1, ptr noundef nonnull align 8 dereferenceable(104) %2, i1 noundef zeroext %3, ptr noundef nonnull align 8 dereferenceable(104) %4, i1 noundef zeroext %5, double noundef %6) #2 align 2 {
  %8 = alloca ptr, align 8
  %9 = alloca double, align 8
  %10 = alloca ptr, align 8
  %11 = alloca i8, align 1
  %12 = alloca ptr, align 8
  %13 = alloca i8, align 1
  %14 = alloca double, align 8
  %15 = alloca i32, align 4
  %16 = alloca i32, align 4
  %17 = alloca i32, align 4
  store ptr %0, ptr %8, align 8, !tbaa !10
  store double %1, ptr %9, align 8, !tbaa !43
  store ptr %2, ptr %10, align 8, !tbaa !10
  %18 = zext i1 %3 to i8
  store i8 %18, ptr %11, align 1, !tbaa !56
  store ptr %4, ptr %12, align 8, !tbaa !10
  %19 = zext i1 %5 to i8
  store i8 %19, ptr %13, align 1, !tbaa !56
  store double %6, ptr %14, align 8, !tbaa !43
  %20 = load ptr, ptr %8, align 8
  call void @llvm.lifetime.start.p0(i64 4, ptr %15) #16
  %21 = call noundef i32 @_ZNK5Ipopt6Matrix5NRowsEv(ptr noundef nonnull align 8 dereferenceable(69) %20)
  store i32 %21, ptr %15, align 4, !tbaa !42
  call void @llvm.lifetime.start.p0(i64 4, ptr %16) #16
  %22 = call noundef i32 @_ZNK5Ipopt6Matrix5NColsEv(ptr noundef nonnull align 8 dereferenceable(69) %20)
  store i32 %22, ptr %16, align 4, !tbaa !42
  call void @llvm.lifetime.start.p0(i64 4, ptr %17) #16
  %23 = load i8, ptr %11, align 1, !tbaa !56, !range !57, !noundef !58
  %24 = trunc i8 %23 to i1
  br i1 %24, label %25, label %28

25:                                               ; preds = %7
  %26 = load ptr, ptr %10, align 8, !tbaa !10
  %27 = call noundef i32 @_ZNK5Ipopt6Matrix5NRowsEv(ptr noundef nonnull align 8 dereferenceable(69) %26)
  store i32 %27, ptr %17, align 4, !tbaa !42
  br label %31

28:                                               ; preds = %7
  %29 = load ptr, ptr %10, align 8, !tbaa !10
  %30 = call noundef i32 @_ZNK5Ipopt6Matrix5NColsEv(ptr noundef nonnull align 8 dereferenceable(69) %29)
  store i32 %30, ptr %17, align 4, !tbaa !42
  br label %31

31:                                               ; preds = %28, %25
  %32 = load i8, ptr %11, align 1, !tbaa !56, !range !57, !noundef !58
  %33 = trunc i8 %32 to i1
  %34 = load i8, ptr %13, align 1, !tbaa !56, !range !57, !noundef !58
  %35 = trunc i8 %34 to i1
  %36 = load i32, ptr %15, align 4, !tbaa !42
  %37 = load i32, ptr %16, align 4, !tbaa !42
  %38 = load i32, ptr %17, align 4, !tbaa !42
  %39 = load double, ptr %9, align 8, !tbaa !43
  %40 = load ptr, ptr %10, align 8, !tbaa !10
  %41 = call noundef ptr @_ZNK5Ipopt14DenseGenMatrix6ValuesEv(ptr noundef nonnull align 8 dereferenceable(104) %40)
  %42 = load ptr, ptr %10, align 8, !tbaa !10
  %43 = call noundef i32 @_ZNK5Ipopt6Matrix5NRowsEv(ptr noundef nonnull align 8 dereferenceable(69) %42)
  %44 = load ptr, ptr %12, align 8, !tbaa !10
  %45 = call noundef ptr @_ZNK5Ipopt14DenseGenMatrix6ValuesEv(ptr noundef nonnull align 8 dereferenceable(104) %44)
  %46 = load ptr, ptr %12, align 8, !tbaa !10
  %47 = call noundef i32 @_ZNK5Ipopt6Matrix5NRowsEv(ptr noundef nonnull align 8 dereferenceable(69) %46)
  %48 = load double, ptr %14, align 8, !tbaa !43
  %49 = getelementptr inbounds nuw %"class.Ipopt::DenseGenMatrix", ptr %20, i32 0, i32 2
  %50 = load ptr, ptr %49, align 8, !tbaa !33
  %51 = call noundef i32 @_ZNK5Ipopt6Matrix5NRowsEv(ptr noundef nonnull align 8 dereferenceable(69) %20)
  call void @_ZN5Ipopt10IpBlasGemmEbbiiidPKdiS1_idPdi(i1 noundef zeroext %33, i1 noundef zeroext %35, i32 noundef %36, i32 noundef %37, i32 noundef %38, double noundef %39, ptr noundef %41, i32 noundef %43, ptr noundef %45, i32 noundef %47, double noundef %48, ptr noundef %50, i32 noundef %51)
  %52 = getelementptr inbounds nuw %"class.Ipopt::DenseGenMatrix", ptr %20, i32 0, i32 3
  store i8 1, ptr %52, align 8, !tbaa !34
  call void @_ZN5Ipopt12TaggedObject13ObjectChangedEv(ptr noundef nonnull align 8 dereferenceable(56) %20)
  call void @llvm.lifetime.end.p0(i64 4, ptr %17) #16
  call void @llvm.lifetime.end.p0(i64 4, ptr %16) #16
  call void @llvm.lifetime.end.p0(i64 4, ptr %15) #16
  ret void
}