; Function Attrs: mustprogress uwtable
define void @_ZN5Ipopt14DenseGenMatrix16AddMatrixProductEdRKS0_bS2_bd(ptr noundef nonnull align 8 dereferenceable(104) initializes((88, 89)) %0, double noundef %1, ptr noundef nonnull readonly align 8 captures(none) dereferenceable(104) %2, i1 noundef zeroext %3, ptr noundef nonnull readonly align 8 captures(none) dereferenceable(104) %4, i1 noundef zeroext %5, double noundef %6) local_unnamed_addr #2 align 2 {
  %8 = getelementptr inbounds nuw i8, ptr %0, i64 56
  %9 = load ptr, ptr %8, align 8, !tbaa !6
  %10 = getelementptr inbounds nuw i8, ptr %9, i64 12
  %11 = load i32, ptr %10, align 4, !tbaa !33
  %12 = getelementptr inbounds nuw i8, ptr %9, i64 16
  %13 = load i32, ptr %12, align 8, !tbaa !31
  %14 = getelementptr inbounds nuw i8, ptr %2, i64 56
  %15 = load ptr, ptr %14, align 8
  %.0.in.v = select i1 %3, i64 12, i64 16
  %.0.in = getelementptr inbounds nuw i8, ptr %15, i64 %.0.in.v
  %.0 = load i32, ptr %.0.in, align 4, !tbaa !51
  %16 = getelementptr inbounds nuw i8, ptr %2, i64 80
  %17 = load ptr, ptr %16, align 8, !tbaa !34
  %18 = getelementptr inbounds nuw i8, ptr %15, i64 12
  %19 = load i32, ptr %18, align 4, !tbaa !33
  %20 = getelementptr inbounds nuw i8, ptr %4, i64 80
  %21 = load ptr, ptr %20, align 8, !tbaa !34
  %22 = getelementptr inbounds nuw i8, ptr %4, i64 56
  %23 = load ptr, ptr %22, align 8, !tbaa !6
  %24 = getelementptr inbounds nuw i8, ptr %23, i64 12
  %25 = load i32, ptr %24, align 4, !tbaa !33
  %26 = getelementptr inbounds nuw i8, ptr %0, i64 80
  %27 = load ptr, ptr %26, align 8, !tbaa !34
  tail call void @_ZN5Ipopt10IpBlasGemmEbbiiidPKdiS1_idPdi(i1 noundef zeroext %3, i1 noundef zeroext %5, i32 noundef %11, i32 noundef %13, i32 noundef %.0, double noundef %1, ptr noundef %17, i32 noundef %19, ptr noundef %21, i32 noundef %25, double noundef %6, ptr noundef %27, i32 noundef %11)
  %28 = getelementptr inbounds nuw i8, ptr %0, i64 88
  store i8 1, ptr %28, align 8, !tbaa !35
  tail call void @_ZN5Ipopt12TaggedObject13ObjectChangedEv(ptr noundef nonnull align 8 dereferenceable(56) %0)
  ret void
}